target datalayout = "e-m:e-p270:32:32-p271:32:32-p272:64:64-i64:64-i128:128-f80:128-n8:16:32:64-S128"
target triple = "x86_64-pc-linux-gnu"

%"class.std::_Function_base" = type { %"union.std::_Any_data", ptr }
%"union.std::_Any_data" = type { %"union.std::_Nocopy_types" }
%"union.std::_Nocopy_types" = type { { i64, i64 } }
%"class.std::function.58" = type { %"class.std::_Function_base", ptr }
%class.anon.652 = type { %"class.std::function.58", i64 }

; Function Attrs: mustprogress nounwind uwtable
define linkonce_odr dso_local noundef zeroext i1 @_ZNKSt14_Function_base8_M_emptyEv(ptr noundef nonnull align 8 dereferenceable(24) %0) #5 comdat align 2 {
  %2 = alloca ptr, align 8
  store ptr %0, ptr %2, align 8
  %3 = load ptr, ptr %2, align 8
  %4 = getelementptr inbounds %"class.std::_Function_base", ptr %3, i32 0, i32 1
  %5 = load ptr, ptr %4, align 8
  %6 = icmp ne ptr %5, null
  %7 = xor i1 %6, true
  ret i1 %7
}

; Function Attrs: mustprogress uwtable
define linkonce_odr dso_local noundef zeroext i1 @_ZNKSt8functionIFbRjPKN4Json5ValueEP11cmJSONStateEEclES0_S4_S6_(ptr noundef nonnull align 8 dereferenceable(32) %0, ptr noundef nonnull align 4 dereferenceable(4) %1, ptr noundef %2, ptr noundef %3) #4 comdat align 2 {
  %5 = alloca ptr, align 8
  %6 = alloca ptr, align 8
  %7 = alloca ptr, align 8
  %8 = alloca ptr, align 8
  store ptr %0, ptr %5, align 8
  store ptr %1, ptr %6, align 8
  store ptr %2, ptr %7, align 8
  store ptr %3, ptr %8, align 8
  %9 = load ptr, ptr %5, align 8
  %10 = call noundef zeroext i1 @_ZNKSt14_Function_base8_M_emptyEv(ptr noundef nonnull align 8 dereferenceable(24) %9)
  br i1 %10, label %11, label %12

11:                                               ; preds = %4
  call void @_ZSt25__throw_bad_function_callv() #14
  unreachable

12:                                               ; preds = %4
  %13 = getelementptr inbounds %"class.std::function.58", ptr %9, i32 0, i32 1
  %14 = load ptr, ptr %13, align 8
  %15 = getelementptr inbounds %"class.std::_Function_base", ptr %9, i32 0, i32 0
  %16 = load ptr, ptr %6, align 8
  %17 = call noundef zeroext i1 %14(ptr noundef nonnull align 8 dereferenceable(16) %15, ptr noundef nonnull align 4 dereferenceable(4) %16, ptr noundef nonnull align 8 dereferenceable(8) %7, ptr noundef nonnull align 8 dereferenceable(8) %8)
  ret i1 %17
}

; Function Attrs: mustprogress uwtable
define internal noundef zeroext i1 @_ZZN19cmJSONHelperBuilder6ObjectIN12_GLOBAL__N_112CMakeVersionEE4BindIS2_jSt8functionIFbRjPKN4Json5ValueEP11cmJSONStateEEEERS3_RKSt17basic_string_viewIcSt11char_traitsIcEEMT_T0_T1_bENKUlRS2_SA_SC_E_clESQ_SA_SC_(ptr noundef nonnull align 8 dereferenceable(40) %0, ptr noundef nonnull align 4 dereferenceable(12) %1, ptr noundef %2, ptr noundef %3) #4 align 2 {
  %5 = alloca ptr, align 8
  %6 = alloca ptr, align 8
  %7 = alloca ptr, align 8
  %8 = alloca ptr, align 8
  store ptr %0, ptr %5, align 8
  store ptr %1, ptr %6, align 8
  store ptr %2, ptr %7, align 8
  store ptr %3, ptr %8, align 8
  %9 = load ptr, ptr %5, align 8
  %10 = getelementptr inbounds %class.anon.652, ptr %9, i32 0, i32 0
  %11 = load ptr, ptr %6, align 8
  %12 = getelementptr inbounds %class.anon.652, ptr %9, i32 0, i32 1
  %13 = load i64, ptr %12, align 8
  %14 = getelementptr inbounds i8, ptr %11, i64 %13
  %15 = load ptr, ptr %7, align 8
  %16 = load ptr, ptr %8, align 8
  %17 = call noundef zeroext i1 @_ZNKSt8functionIFbRjPKN4Json5ValueEP11cmJSONStateEEclES0_S4_S6_(ptr noundef nonnull align 8 dereferenceable(32) %10, ptr noundef nonnull align 4 dereferenceable(4) %14, ptr noundef %15, ptr noundef %16)
  ret i1 %17
}

; Function Attrs: mustprogress nounwind uwtable
define linkonce_odr dso_local noundef ptr @_ZNKSt9_Any_data9_M_accessEv(ptr noundef nonnull align 8 dereferenceable(16) %0) #5 comdat align 2 {
  %2 = alloca ptr, align 8
  store ptr %0, ptr %2, align 8
  %3 = load ptr, ptr %2, align 8
  %4 = getelementptr inbounds [16 x i8], ptr %3, i64 0, i64 0
  ret ptr %4
}

; Function Attrs: mustprogress uwtable
define internal noundef zeroext i1 @_ZSt13__invoke_implIbRZN19cmJSONHelperBuilder6ObjectIN12_GLOBAL__N_112CMakeVersionEE4BindIS3_jSt8functionIFbRjPKN4Json5ValueEP11cmJSONStateEEEERS4_RKSt17basic_string_viewIcSt11char_traitsIcEEMT_T0_T1_bEUlRS3_SB_SD_E_JSR_SB_SD_EESN_St14__invoke_otherOSO_DpOT1_(ptr noundef nonnull align 8 dereferenceable(40) %0, ptr noundef nonnull align 4 dereferenceable(12) %1, ptr noundef nonnull align 8 dereferenceable(8) %2, ptr noundef nonnull align 8 dereferenceable(8) %3) #4 {
  %5 = alloca ptr, align 8
  %6 = alloca ptr, align 8
  %7 = alloca ptr, align 8
  %8 = alloca ptr, align 8
  store ptr %0, ptr %5, align 8
  store ptr %1, ptr %6, align 8
  store ptr %2, ptr %7, align 8
  store ptr %3, ptr %8, align 8
  %9 = load ptr, ptr %5, align 8
  %10 = load ptr, ptr %6, align 8
  %11 = load ptr, ptr %7, align 8
  %12 = load ptr, ptr %11, align 8
  %13 = load ptr, ptr %8, align 8
  %14 = load ptr, ptr %13, align 8
  %15 = call noundef zeroext i1 @_ZZN19cmJSONHelperBuilder6ObjectIN12_GLOBAL__N_112CMakeVersionEE4BindIS2_jSt8functionIFbRjPKN4Json5ValueEP11cmJSONStateEEEERS3_RKSt17basic_string_viewIcSt11char_traitsIcEEMT_T0_T1_bENKUlRS2_SA_SC_E_clESQ_SA_SC_(ptr noundef nonnull align 8 dereferenceable(40) %9, ptr noundef nonnull align 4 dereferenceable(12) %10, ptr noundef %12, ptr noundef %14)
  ret i1 %15
}

; Function Attrs: mustprogress nounwind uwtable
define internal noundef nonnull align 8 dereferenceable(8) ptr @_ZNKSt9_Any_data9_M_accessIPZN19cmJSONHelperBuilder6ObjectIN12_GLOBAL__N_112CMakeVersionEE4BindIS4_jSt8functionIFbRjPKN4Json5ValueEP11cmJSONStateEEEERS5_RKSt17basic_string_viewIcSt11char_traitsIcEEMT_T0_T1_bEUlRS4_SC_SE_E_EERKSO_v(ptr noundef nonnull align 8 dereferenceable(16) %0) #5 align 2 {
  %2 = alloca ptr, align 8
  store ptr %0, ptr %2, align 8
  %3 = load ptr, ptr %2, align 8
  %4 = call noundef ptr @_ZNKSt9_Any_data9_M_accessEv(ptr noundef nonnull align 8 dereferenceable(16) %3) #3
  ret ptr %4
}

; Function Attrs: mustprogress uwtable
define internal noundef zeroext i1 @_ZSt10__invoke_rIbRZN19cmJSONHelperBuilder6ObjectIN12_GLOBAL__N_112CMakeVersionEE4BindIS3_jSt8functionIFbRjPKN4Json5ValueEP11cmJSONStateEEEERS4_RKSt17basic_string_viewIcSt11char_traitsIcEEMT_T0_T1_bEUlRS3_SB_SD_E_JSR_SB_SD_EENSt9enable_ifIX16is_invocable_r_vISN_SO_DpT1_EESN_E4typeEOSO_DpOSV_(ptr noundef nonnull align 8 dereferenceable(40) %0, ptr noundef nonnull align 4 dereferenceable(12) %1, ptr noundef nonnull align 8 dereferenceable(8) %2, ptr noundef nonnull align 8 dereferenceable(8) %3) #4 {
  %5 = alloca ptr, align 8
  %6 = alloca ptr, align 8
  %7 = alloca ptr, align 8
  %8 = alloca ptr, align 8
  store ptr %0, ptr %5, align 8
  store ptr %1, ptr %6, align 8
  store ptr %2, ptr %7, align 8
  store ptr %3, ptr %8, align 8
  %9 = load ptr, ptr %5, align 8
  %10 = load ptr, ptr %6, align 8
  %11 = load ptr, ptr %7, align 8
  %12 = load ptr, ptr %8, align 8
  %13 = call noundef zeroext i1 @_ZSt13__invoke_implIbRZN19cmJSONHelperBuilder6ObjectIN12_GLOBAL__N_112CMakeVersionEE4BindIS3_jSt8functionIFbRjPKN4Json5ValueEP11cmJSONStateEEEERS4_RKSt17basic_string_viewIcSt11char_traitsIcEEMT_T0_T1_bEUlRS3_SB_SD_E_JSR_SB_SD_EESN_St14__invoke_otherOSO_DpOT1_(ptr noundef nonnull align 8 dereferenceable(40) %9, ptr noundef nonnull align 4 dereferenceable(12) %10, ptr noundef nonnull align 8 dereferenceable(8) %11, ptr noundef nonnull align 8 dereferenceable(8) %12)
  ret i1 %13
}

; Function Attrs: mustprogress nounwind uwtable
define internal noundef ptr @_ZNSt14_Function_base13_Base_managerIZN19cmJSONHelperBuilder6ObjectIN12_GLOBAL__N_112CMakeVersionEE4BindIS4_jSt8functionIFbRjPKN4Json5ValueEP11cmJSONStateEEEERS5_RKSt17basic_string_viewIcSt11char_traitsIcEEMT_T0_T1_bEUlRS4_SC_SE_E_E14_M_get_pointerERKSt9_Any_data(ptr noundef nonnull align 8 dereferenceable(16) %0) #5 align 2 {
  %2 = alloca ptr, align 8
  store ptr %0, ptr %2, align 8
  %3 = load ptr, ptr %2, align 8
  %4 = call noundef nonnull align 8 dereferenceable(8) ptr @_ZNKSt9_Any_data9_M_accessIPZN19cmJSONHelperBuilder6ObjectIN12_GLOBAL__N_112CMakeVersionEE4BindIS4_jSt8functionIFbRjPKN4Json5ValueEP11cmJSONStateEEEERS5_RKSt17basic_string_viewIcSt11char_traitsIcEEMT_T0_T1_bEUlRS4_SC_SE_E_EERKSO_v(ptr noundef nonnull align 8 dereferenceable(16) %3) #3
  %5 = load ptr, ptr %4, align 8
  ret ptr %5
}

; Function Attrs: mustprogress uwtable
define internal noundef zeroext i1 @_ZNSt17_Function_handlerIFbRN12_GLOBAL__N_112CMakeVersionEPKN4Json5ValueEP11cmJSONStateEZN19cmJSONHelperBuilder6ObjectIS1_E4BindIS1_jSt8functionIFbRjS6_S8_EEEERSC_RKSt17basic_string_viewIcSt11char_traitsIcEEMT_T0_T1_bEUlS2_S6_S8_E_E9_M_invokeERKSt9_Any_dataS2_OS6_OS8_(ptr noundef nonnull align 8 dereferenceable(16) %0, ptr noundef nonnull align 4 dereferenceable(12) %1, ptr noundef nonnull align 8 dereferenceable(8) %2, ptr noundef nonnull align 8 dereferenceable(8) %3) #4 align 2 {
  %5 = alloca ptr, align 8
  %6 = alloca ptr, align 8
  %7 = alloca ptr, align 8
  %8 = alloca ptr, align 8
  store ptr %0, ptr %5, align 8
  store ptr %1, ptr %6, align 8
  store ptr %2, ptr %7, align 8
  store ptr %3, ptr %8, align 8
  %9 = load ptr, ptr %5, align 8
  %10 = call noundef ptr @_ZNSt14_Function_base13_Base_managerIZN19cmJSONHelperBuilder6ObjectIN12_GLOBAL__N_112CMakeVersionEE4BindIS4_jSt8functionIFbRjPKN4Json5ValueEP11cmJSONStateEEEERS5_RKSt17basic_string_viewIcSt11char_traitsIcEEMT_T0_T1_bEUlRS4_SC_SE_E_E14_M_get_pointerERKSt9_Any_data(ptr noundef nonnull align 8 dereferenceable(16) %9) #3
  %11 = load ptr, ptr %6, align 8
  %12 = load ptr, ptr %7, align 8
  %13 = load ptr, ptr %8, align 8
  %14 = call noundef zeroext i1 @_ZSt10__invoke_rIbRZN19cmJSONHelperBuilder6ObjectIN12_GLOBAL__N_112CMakeVersionEE4BindIS3_jSt8functionIFbRjPKN4Json5ValueEP11cmJSONStateEEEERS4_RKSt17basic_string_viewIcSt11char_traitsIcEEMT_T0_T1_bEUlRS3_SB_SD_E_JSR_SB_SD_EENSt9enable_ifIX16is_invocable_r_vISN_SO_DpT1_EESN_E4typeEOSO_DpOSV_(ptr noundef nonnull align 8 dereferenceable(40) %10, ptr noundef nonnull align 4 dereferenceable(12) %11, ptr noundef nonnull align 8 dereferenceable(8) %12, ptr noundef nonnull align 8 dereferenceable(8) %13)
  ret i1 %14
}